; Function Attrs: nounwind uwtable
define dso_local void @Curl_ssl_peer_cleanup(ptr noundef captures(none) %0) local_unnamed_addr #2 {
  %2 = getelementptr inbounds nuw i8, ptr %0, i64 8
  %3 = load ptr, ptr %2, align 8
  %4 = load ptr, ptr %0, align 8
  %.not = icmp eq ptr %3, %4
  br i1 %.not, label %7, label %5

5:                                                ; preds = %1
  %6 = load ptr, ptr @Curl_cfree, align 8
  tail call void %6(ptr noundef %3) #18
  br label %7

7:                                                ; preds = %5, %1
  %8 = load ptr, ptr @Curl_cfree, align 8
  %9 = getelementptr inbounds nuw i8, ptr %0, i64 16
  %10 = load ptr, ptr %9, align 8
  tail call void %8(ptr noundef %10) #18
  %11 = load ptr, ptr @Curl_cfree, align 8
  %12 = load ptr, ptr %0, align 8
  tail call void %11(ptr noundef %12) #18
  %13 = getelementptr inbounds nuw i8, ptr %0, i64 24
  tail call void @llvm.memset.p0.i64(ptr noundef nonnull align 8 dereferenceable(24) %0, i8 0, i64 24, i1 false)
  %14 = load i8, ptr %13, align 8
  %15 = and i8 %14, -2
  store i8 %15, ptr %13, align 8
  ret void
}